(lp1
(S'Hugh'
S'Mann'
tp2
a(S'Rob'
S'Zombie'
tp3
a(S'Nadia'
S'Croyle'
tp4
a(S'Lucie'
S'Rother'
tp5
a(S'Pedro'
S'Starks'
tp6
a(S'Toya'
S'Riebe'
tp7
a(S'Rey'
S'Szewczyk'
tp8
a(S'Celena'
S'Edelson'
tp9
a(S'Lashaunda'
S'Cowherd'
tp10
a(S'Jasper'
S'Redmond'
tp11
a(S'Rosalee'
S'Kohr'
tp12
a(S'Xuan'
S'Heywood'
tp13
a(S'Junita'
S'Givan'
tp14
a(S'Takako'
S'Bratton'
tp15
a(S'Tamesha'
S'Rodman'
tp16
a(S'Eleanora'
S'Chittum'
tp17
a(S'Brad'
S'Madison'
tp18
a(S'Carleen'
S'Olsen'
tp19
a(S'Barney'
S'Reis'
tp20
a(S'Gena'
S'Sturges'
tp21
a(S'Kathi'
S'Culbert'
tp22
a(S'Sherrill'
S'Agosto'
tp23
a(S'Bebe'
S'Poovey'
tp24
a(S'Elfreda'
S'Gehl'
tp25
a(S'Carman'
S'Deems'
tp26
a(S'Carol'
S'Traynor'
tp27
a(S'Numbers'
S'Godbee'
tp28
a(S'Priscilla'
S'Roux'
tp29
a(S'Carlos'
S'Blackstock'
tp30
a(S'Kia'
S'Vanderhorst'
tp31
a(S'Brigitte'
S'Gatchell'
tp32
a(S'Bertram'
S'Holte'
tp33
a(S'Terresa'
S'Krawczyk'
tp34
a(S'Raisa'
S'Funderburg'
tp35
a(S'Lina'
S'Stinger'
tp36
a(S'Roseanne'
S'Karlson'
tp37
a(S'Melodee'
S'Zinke'
tp38
a(S'Ray'
S'Santana'
tp39
a(S'Beatris'
S'Buttars'
tp40
a(S'Nickole'
S'Meister'
tp41
a(S'Deadra'
S'Buckle'
tp42
a(S'Erich'
S'Krider'
tp43
a(S'Laurinda'
S'Schurr'
tp44
a(S'Elanor'
S'Lambert'
tp45
a(S'Geneva'
S'Sealey'
tp46
a(S'Charlyn'
S'Clem'
tp47
a(S'Elsie'
S'Bhatti'
tp48
a(S'Doloris'
S'Leu'
tp49
a(S'Lakendra'
S'Fasano'
tp50
a(S'Estela'
S'Kenton'
tp51
a(S'Lynnette'
S'Dawes'
tp52
a(S'Fiona'
S'Millan'
tp53
a(S'Jasper'
S'Hollar'
tp54
a(S'Nelle'
S'Mcnickle'
tp55
a(S'Larry'
S'Lindberg'
tp56
a(S'Maximo'
S'Renfro'
tp57
a(S'Carmelita'
S'Siggers'
tp58
a(S'Marsha'
S'Kump'
tp59
a(S'Alyce'
S'Oum'
tp60
a(S'Marceline'
S'Roesch'
tp61
a(S'Ruthe'
S'Hardie'
tp62
a(S'Marianne'
S'Betts'
tp63
a(S'Clarine'
S'Raftery'
tp64
a(S'Julieann'
S'Birkhead'
tp65
a(S'Adolfo'
S'Sudderth'
tp66
a(S'Margit'
S'Booth'
tp67
a(S'Corie'
S'Hudgins'
tp68
a(S'Tatyana'
S'Pressnell'
tp69
a(S'Tanner'
S'Overbay'
tp70
a(S'Fermin'
S'Anton'
tp71
a(S'Tiffany'
S'Miers'
tp72
a(S'Catrice'
S'Gunnells'
tp73
a(S'Nicholas'
S'Xavier'
tp74
a(S'Glinda'
S'Vantassel'
tp75
a(S'Enola'
S'Jasso'
tp76
a(S'Will'
S'Vorpahl'
tp77
a(S'Tyra'
S'Oslund'
tp78
a(S'Donnell'
S'Chatterton'
tp79
a(S'Alfredia'
S'Desrochers'
tp80
a(S'Myrl'
S'Maultsby'
tp81
a(S'Jessia'
S'Waterhouse'
tp82
a(S'Leann'
S'Balzer'
tp83
a(S'Gianna'
S'Corp'
tp84
a(S'Keli'
S'Ghent'
tp85
a(S'Teresita'
S'Steckel'
tp86
a(S'Wen'
S'Carleton'
tp87
a(S'Marquerite'
S'Haden'
tp88
a(S'Ladawn'
S'Francia'
tp89
a(S'Marlon'
S'Eutsey'
tp90
a(S'Martine'
S'Coldwell'
tp91
a(S'Mikki'
S'Nations'
tp92
a(S'Sang'
S'Ecker'
tp93
a(S'Mariano'
S'Helmer'
tp94
a(S'Jeanetta'
S'Curlee'
tp95
a(S'Shakita'
S'Marzano'
tp96
a(S'Vera'
S'Cumbo'
tp97
a(S'Lorena'
S'Diedrich'
tp98
a(S'Charlie'
S'Roher'
tp99
a(S'Lynsey'
S'Rodriquez'
tp100
a(S'Sarah'
S'Gregg'
tp101
a(S'Norene'
S'Bryson'
tp102
a(S'Leeann'
S'Gurney'
tp103
a(S'Hermina'
S'Lebowitz'
tp104
a(S'Lavenia'
S'Rybak'
tp105
a(S'Aiko'
S'Mazzeo'
tp106
a(S'Jamila'
S'Gratton'
tp107
a(S'Cami'
S'Hoggan'
tp108
a(S'Evonne'
S'Lahr'
tp109
a(S'Elida'
S'Cabrales'
tp110
a(S'Ofelia'
S'Mcconico'
tp111
a(S'Edgar'
S'Baze'
tp112
a(S'Vernon'
S'Rascon'
tp113
a(S'Brice'
S'Dortch'
tp114
a(S'Salvatore'
S'Zeiler'
tp115
a(S'Harriet'
S'Nunez'
tp116
a(S'Gaynelle'
S'Maillet'
tp117
a(S'Lauretta'
S'Delapena'
tp118
a(S'Tonie'
S'Babiarz'
tp119
a(S'Paris'
S'Donahue'
tp120
a(S'Lin'
S'Kendra'
tp121
a(S'Johnny'
S'Huie'
tp122
a(S'Lynn'
S'Enz'
tp123
a(S'Tran'
S'Kimber'
tp124
a(S'Chong'
S'Ekhoff'
tp125
a(S'Ethelyn'
S'Lauritzen'
tp126
a(S'Christal'
S'Desouza'
tp127
a(S'Kandra'
S'Hammond'
tp128
a(S'Caryl'
S'Fickel'
tp129
a(S'Hilary'
S'Canedy'
tp130
a(S'Tam'
S'Knutson'
tp131
a(S'Bradford'
S'Kohls'
tp132
a(S'Kali'
S'Mahle'
tp133
a(S'Grisel'
S'Nealey'
tp134
a(S'Lawerence'
S'Farrah'
tp135
a(S'Agnus'
S'Dodson'
tp136
a(S'Jeni'
S'Mannino'
tp137
a(S'Ervin'
S'Ludlow'
tp138
a(S'Porsha'
S'Tempel'
tp139
a(S'Lisandra'
S'Licon'
tp140
a(S'Almeta'
S'Buttery'
tp141
a(S'Leann'
S'Younan'
tp142
a(S'Hosea'
S'Lucio'
tp143
a(S'Slyvia'
S'Terrazas'
tp144
a(S'Sharan'
S'Meggs'
tp145
a(S'Fleta'
S'Wheeless'
tp146
a(S'Elsie'
S'Lemay'
tp147
a(S'Debra'
S'Moffat'
tp148
a(S'Lucy'
S'Beaty'
tp149
a(S'Nubia'
S'Mcfarlin'
tp150
a(S'Valerie'
S'Devoe'
tp151
a(S'Raisa'
S'Lookabaugh'
tp152
a(S'Gertie'
S'Phillip'
tp153
a(S'Jane'
S'Hight'
tp154
a(S'Clora'
S'Bunton'
tp155
a(S'Gretta'
S'Pfeffer'
tp156
a(S'Carmine'
S'Hodes'
tp157
a(S'Warren'
S'Corella'
tp158
a(S'Paola'
S'Viloria'
tp159
a(S'Melvin'
S'Provenza'
tp160
a(S'Jami'
S'Boudreaux'
tp161
a(S'Kimberly'
S'Tinkler'
tp162
a(S'Charity'
S'Ellison'
tp163
a(S'Hisako'
S'Whitesel'
tp164
a(S'Tanner'
S'Loggins'
tp165
a(S'Janise'
S'Mort'
tp166
a(S'Eli'
S'Styer'
tp167
a(S'Goldie'
S'Noffsinger'
tp168
a(S'Ferdinand'
S'Elks'
tp169
a(S'Alline'
S'Abels'
tp170
a(S'Vita'
S'Wigger'
tp171
a(S'Terica'
S'Saint'
tp172
a(S'Cathi'
S'Lucca'
tp173
a(S'Maurice'
S'Folse'
tp174
a(S'Jacob'
S'Barboza'
tp175
a(S'Riley'
S'Trundy'
tp176
a(S'Neil'
S'Mcdonell'
tp177
a(S'Twyla'
S'Lingerfelt'
tp178
a(S'Palmira'
S'Streich'
tp179
a(S'Treena'
S'Highfill'
tp180
a(S'Candelaria'
S'Steffen'
tp181
a(S'Oretha'
S'Shorty'
tp182
a(S'Lexie'
S'Dade'
tp183
a(S'Corrina'
S'Allan'
tp184
a(S'Marlene'
S'Cluck'
tp185
a(S'Wallace'
S'Slayden'
tp186
a(S'Maryam'
S'Judkins'
tp187
a(S'Ulysses'
S'Do'
tp188
a(S'Erich'
S'Mcgrath'
tp189
a(S'Shakira'
S'Lent'
tp190
a(S'Lucila'
S'Santerre'
tp191
a(S'Milly'
S'Lindeman'
tp192
a(S'Renata'
S'Jeffrey'
tp193
a(S'Vivian'
S'Shipley'
tp194
a(S'Eleanor'
S'Luse'
tp195
a(S'Edie'
S'Kridler'
tp196
a(S'Dorie'
S'Charney'
tp197
a(S'Sharan'
S'Hahne'
tp198
a(S'Lavona'
S'Larrabee'
tp199
a(S'Berneice'
S'Metcalfe'
tp200
a(S'Arcelia'
S'Haith'
tp201
a(S'Rosalie'
S'Bullis'
tp202
a(S'Evie'
S'Heide'
tp203
a(S'Hung'
S'Taranto'
tp204
a(S'Na'
S'Tuten'
tp205
a(S'Sofia'
S'Farnum'
tp206
a(S'Randa'
S'Mcshane'
tp207
a(S'Toni'
S'Creasman'
tp208
a(S'Bari'
S'Vanmatre'
tp209
a(S'Jodee'
S'Abels'
tp210
a(S'Santos'
S'Kelemen'
tp211
a(S'Elizabeth'
S'Tung'
tp212
a(S'Lamonica'
S'Edie'
tp213
a(S'Lilia'
S'Burrows'
tp214
a(S'Carita'
S'Mecham'
tp215
a(S'Julienne'
S'Digirolamo'
tp216
a(S'Olivia'
S'Hyder'
tp217
a(S'Jeanett'
S'Culwell'
tp218
a(S'Kali'
S'Swank'
tp219
a(S'Marcel'
S'Deveau'
tp220
a(S'Sheryll'
S'Dehne'
tp221
a(S'Gavin'
S'Alphonse'
tp222
a(S'Maranda'
S'Wagnon'
tp223
a(S'Kayce'
S'Harig'
tp224
a(S'Lakia'
S'Mcmanis'
tp225
a(S'Rufus'
S'Leak'
tp226
a(S'Raye'
S'Tynes'
tp227
a(S'Alexis'
S'Husband'
tp228
a(S'Danilo'
S'Burkhead'
tp229
a(S'Orval'
S'Canterbury'
tp230
a(S'Nga'
S'Sasson'
tp231
a(S'Seth'
S'Slovak'
tp232
a(S'Destiny'
S'Ledezma'
tp233
a(S'Tanisha'
S'Hinrichs'
tp234
a(S'Idella'
S'Boyer'
tp235
a(S'Brandy'
S'Hoos'
tp236
a(S'Mack'
S'Phaneuf'
tp237
a(S'Theola'
S'Kirkendall'
tp238
a(S'Tracie'
S'Penniman'
tp239
a(S'Myung'
S'Culton'
tp240
a(S'Janell'
S'Cho'
tp241
a(S'Phoebe'
S'Clemmer'
tp242
a(S'Cindy'
S'Philipps'
tp243
a(S'Julissa'
S'Mickley'
tp244
a(S'Cami'
S'Sobol'
tp245
a(S'Dell'
S'Sturman'
tp246
a(S'Angel'
S'Trumble'
tp247
a(S'Ambrose'
S'Koga'
tp248
a(S'Debi'
S'Knight'
tp249
a(S'Zella'
S'Nitta'
tp250
a(S'Rory'
S'Hanselman'
tp251
a(S'Sharee'
S'Lunceford'
tp252
a(S'Signe'
S'Dulle'
tp253
a(S'Collen'
S'Derryberry'
tp254
a(S'Lacie'
S'Trimarchi'
tp255
a(S'Claudio'
S'Moskowitz'
tp256
a(S'Nettie'
S'Puthoff'
tp257
a(S'Jackie'
S'Monge'
tp258
a(S'Rex'
S'Flores'
tp259
a(S'Simone'
S'Peveto'
tp260
a(S'Andres'
S'Moniz'
tp261
a(S'Carmella'
S'Genao'
tp262
a(S'Arlean'
S'Swisher'
tp263
a(S'Francoise'
S'Sobota'
tp264
a(S'Isis'
S'Cryan'
tp265
a(S'Oda'
S'Kindred'
tp266
a(S'Cheree'
S'Crecelius'
tp267
a(S'Jalisa'
S'Wysong'
tp268
a(S'Gabriella'
S'Burlison'
tp269
a(S'Luetta'
S'Uribe'
tp270
a(S'Wilford'
S'Souza'
tp271
a(S'Ginger'
S'Pfister'
tp272
a(S'Else'
S'Angell'
tp273
a(S'Clemmie'
S'Mayor'
tp274
a(S'Kacie'
S'Kohn'
tp275
a(S'Xuan'
S'Dry'
tp276
a(S'Elsa'
S'Pletcher'
tp277
a(S'Alayna'
S'Matis'
tp278
a(S'Taylor'
S'Monroig'
tp279
a(S'Junie'
S'Whited'
tp280
a(S'Ferdinand'
S'Leggio'
tp281
a(S'Dorothea'
S'Braverman'
tp282
a(S'Rona'
S'Magda'
tp283
a(S'Olimpia'
S'Landman'
tp284
a(S'Sumiko'
S'Michalek'
tp285
a(S'Derrick'
S'Wehmeyer'
tp286
a(S'Lieselotte'
S'Buie'
tp287
a(S'Virgil'
S'Dillard'
tp288
a(S'Loyce'
S'Nasser'
tp289
a(S'Teressa'
S'Slough'
tp290
a(S'Jada'
S'Garza'
tp291
a(S'Kathie'
S'Alter'
tp292
a(S'Leoma'
S'Rhoades'
tp293
a(S'Jerica'
S'Vanduzer'
tp294
a(S'Micaela'
S'Clark'
tp295
a(S'Tierra'
S'Stromberg'
tp296
a(S'Mindy'
S'Buffum'
tp297
a(S'Trudi'
S'Stager'
tp298
a(S'Kristofer'
S'Hehn'
tp299
a(S'Teodora'
S'Panter'
tp300
a(S'Fernanda'
S'Irish'
tp301
a(S'Chris'
S'Navarro'
tp302
a(S'Wenona'
S'Pastore'
tp303
a(S'Elisabeth'
S'Southall'
tp304
a(S'Liana'
S'Steelman'
tp305
a(S'Newton'
S'Cruikshank'
tp306
a(S'Kandis'
S'Hinojosa'
tp307
a(S'Johnathon'
S'Mcduff'
tp308
a(S'Shaun'
S'Overall'
tp309
a(S'Raymundo'
S'Kilcrease'
tp310
a(S'Roselia'
S'Ferrera'
tp311
a(S'Carlena'
S'Pinkham'
tp312
a(S'Armand'
S'Doak'
tp313
a(S'Karon'
S'Hanford'
tp314
a(S'Lorette'
S'Rowen'
tp315
a(S'Kati'
S'Newell'
tp316
a(S'Laci'
S'Ore'
tp317
a(S'Edwardo'
S'Sousa'
tp318
a(S'Meghan'
S'Leboeuf'
tp319
a(S'Ulrike'
S'Loflin'
tp320
a(S'Karine'
S'Friday'
tp321
a(S'Freida'
S'Wimsatt'
tp322
a(S'Leslie'
S'Hardisty'
tp323
a(S'Willodean'
S'Swisher'
tp324
a(S'Marguerite'
S'Schlemmer'
tp325
a(S'Armida'
S'Luc'
tp326
a(S'Lyla'
S'Mintz'
tp327
a(S'Ruthie'
S'Bembry'
tp328
a(S'Charline'
S'Oquinn'
tp329
a(S'Margaretta'
S'Mcglasson'
tp330
a(S'Lavonne'
S'Poor'
tp331
a(S'Lazaro'
S'Bello'
tp332
a(S'Kum'
S'Visser'
tp333
a(S'Lisa'
S'Ratcliff'
tp334
a(S'Lynelle'
S'Lerch'
tp335
a(S'Ronald'
S'Whiddon'
tp336
a(S'Temple'
S'Lecuyer'
tp337
a(S'Jerrold'
S'Blanding'
tp338
a(S'Lavelle'
S'Zinck'
tp339
a(S'Loralee'
S'Royals'
tp340
a(S'Doretha'
S'Roder'
tp341
a(S'Lauretta'
S'Carpenter'
tp342
a(S'Kenny'
S'Rawley'
tp343
a(S'Cammie'
S'Roker'
tp344
a(S'Aldo'
S'Manns'
tp345
a(S'Cathy'
S'Surber'
tp346
a(S'Julius'
S'Trantham'
tp347
a(S'Krystal'
S'Sulik'
tp348
a(S'Kimber'
S'Rosenow'
tp349
a(S'Harriet'
S'Bowens'
tp350
a(S'Mitsue'
S'Benningfield'
tp351
a(S'Adele'
S'Fuchs'
tp352
a(S'Nicola'
S'Vanpatten'
tp353
a(S'Mi'
S'Nelson'
tp354
a(S'Florentina'
S'Veltri'
tp355
a(S'Lida'
S'Delpino'
tp356
a(S'Jacquelyne'
S'Kintner'
tp357
a(S'Anneliese'
S'Buchler'
tp358
a(S'Terisa'
S'Hershberger'
tp359
a(S'Merrie'
S'Comes'
tp360
a(S'Shella'
S'Stalter'
tp361
a(S'Aurelia'
S'Cessna'
tp362
a(S'Felix'
S'Lister'
tp363
a(S'Elana'
S'Friedt'
tp364
a(S'Lorie'
S'Stigall'
tp365
a(S'Lonnie'
S'Schoenberger'
tp366
a(S'Cecil'
S'Barragan'
tp367
a(S'Marylin'
S'Mcmullan'
tp368
a(S'Annamae'
S'Monteith'
tp369
a(S'Katherina'
S'Culler'
tp370
a(S'Denyse'
S'Villanueva'
tp371
a(S'Eldridge'
S'Thao'
tp372
a(S'Mirta'
S'Calero'
tp373
a(S'Wava'
S'Sorrell'
tp374
a(S'Leota'
S'Tippit'
tp375
a(S'Crysta'
S'Stall'
tp376
a(S'Tifany'
S'Hubbert'
tp377
a(S'Eric'
S'Blasko'
tp378
a(S'Librada'
S'Witek'
tp379
a(S'Ping'
S'Brigmond'
tp380
a(S'Sallie'
S'Wildey'
tp381
a(S'Jolanda'
S'Eves'
tp382
a(S'Jennine'
S'Eno'
tp383
a(S'Jenni'
S'Watts'
tp384
a(S'Deirdre'
S'Ragin'
tp385
a(S'Talia'
S'Wortham'
tp386
a(S'Jerrell'
S'Cowher'
tp387
a(S'Tashia'
S'Manahan'
tp388
a(S'Lanita'
S'Busch'
tp389
a(S'Tommie'
S'Cumbee'
tp390
a(S'Breana'
S'Sprowl'
tp391
a(S'Gerard'
S'Chavers'
tp392
a(S'Berna'
S'Kuehne'
tp393
a(S'Phyliss'
S'Ginter'
tp394
a(S'Bo'
S'Price'
tp395
a(S'Ayana'
S'Allie'
tp396
a(S'Latrisha'
S'Gormley'
tp397
a(S'Kristina'
S'Barks'
tp398
a(S'Julio'
S'Pando'
tp399
a(S'Kimber'
S'Legrande'
tp400
a(S'Clara'
S'Macbeth'
tp401
a(S'Phylicia'
S'Isenhour'
tp402
a(S'Richard'
S'Guillot'
tp403
a(S'Dorethea'
S'Mathis'
tp404
a(S'Alexis'
S'Arnette'
tp405
a(S'Ilda'
S'Koelling'
tp406
a(S'Glenda'
S'Hazelton'
tp407
a(S'Rossana'
S'Bibee'
tp408
a(S'Jarrod'
S'Hurless'
tp409
a(S'Nila'
S'Weidemann'
tp410
a(S'Lenita'
S'Gamet'
tp411
a(S'Demetra'
S'Arvie'
tp412
a(S'Onie'
S'Corson'
tp413
a(S'Patrice'
S'Warrington'
tp414
a(S'Marvella'
S'Achenbach'
tp415
a(S'Barry'
S'Sproul'
tp416
a(S'Donnie'
S'Meder'
tp417
a(S'Vito'
S'Tiernan'
tp418
a(S'Gearldine'
S'Yzaguirre'
tp419
a(S'Kathrin'
S'Plumlee'
tp420
a(S'Eddie'
S'Marden'
tp421
a(S'Nina'
S'Delaney'
tp422
a(S'Valrie'
S'Kort'
tp423
a(S'Kristel'
S'Rojo'
tp424
a(S'Eleanora'
S'Ballantine'
tp425
a(S'Kari'
S'Walker'
tp426
a(S'Keva'
S'Derouen'
tp427
a(S'Harriett'
S'Forcier'
tp428
a(S'Jacinda'
S'Pang'
tp429
a(S'Manda'
S'Muth'
tp430
a(S'Curtis'
S'Luck'
tp431
a(S'Neville'
S'Charbonneau'
tp432
a(S'Alycia'
S'Rocchio'
tp433
a(S'Delphia'
S'Yau'
tp434
a(S'Kenda'
S'Whigham'
tp435
a(S'Ione'
S'Mcconnaughy'
tp436
a(S'Chantel'
S'Nicely'
tp437
a(S'Breann'
S'Gundersen'
tp438
a(S'Nilsa'
S'Munger'
tp439
a(S'Nichelle'
S'Mccausland'
tp440
a(S'Easter'
S'Critelli'
tp441
a(S'Rosana'
S'Burritt'
tp442
a(S'Sara'
S'Ruther'
tp443
a(S'Emile'
S'Majka'
tp444
a(S'Dodie'
S'Cuyler'
tp445
a(S'Catarina'
S'Cody'
tp446
a(S'Carin'
S'Sommers'
tp447
a(S'Racquel'
S'Gandara'
tp448
a(S'Ashlyn'
S'Callicoat'
tp449
a(S'Lissette'
S'Armijo'
tp450
a(S'Idell'
S'Sheppard'
tp451
a(S'Denese'
S'Hartmann'
tp452
a(S'Kristie'
S'Cosby'
tp453
a(S'Wally'
S'Nails'
tp454
a(S'Buena'
S'Drewes'
tp455
a(S'Loyd'
S'Magrath'
tp456
a(S'Ami'
S'Visconti'
tp457
a(S'Linh'
S'Wehner'
tp458
a(S'Mei'
S'Lux'
tp459
a(S'Dacia'
S'Daniel'
tp460
a(S'Mariam'
S'Pekar'
tp461
a(S'Dwana'
S'Tilson'
tp462
a(S'Christin'
S'Goodloe'
tp463
a(S'Fleta'
S'Mona'
tp464
a(S'Flo'
S'Turck'
tp465
a(S'Grant'
S'Eells'
tp466
a(S'Deonna'
S'Schulze'
tp467
a(S'Miguelina'
S'Gigliotti'
tp468
a(S'Roberto'
S'Wilborn'
tp469
a(S'Renata'
S'Pakele'
tp470
a(S'Chantel'
S'Steverson'
tp471
a(S'Rayford'
S'Parente'
tp472
a(S'Ulrike'
S'Kawamura'
tp473
a(S'Daryl'
S'Batres'
tp474
a(S'Kelsie'
S'Neumeister'
tp475
a(S'Florentino'
S'Mersch'
tp476
a(S'Melita'
S'Foutz'
tp477
a(S'Evelia'
S'Bolz'
tp478
a(S'Aura'
S'Earles'
tp479
a(S'Katharine'
S'Dostal'
tp480
a(S'Shaina'
S'Luciani'
tp481
a(S'Meridith'
S'Knotts'
tp482
a(S'Gilma'
S'Hebel'
tp483
a(S'Lanette'
S'Elson'
tp484
a(S'Stanley'
S'Hasty'
tp485
a(S'Babara'
S'Pichon'
tp486
a(S'Luana'
S'Lucht'
tp487
a(S'Valentin'
S'Traywick'
tp488
a(S'Luise'
S'Kocher'
tp489
a(S'Forrest'
S'Keil'
tp490
a(S'Caroll'
S'Pardon'
tp491
a(S'Vincent'
S'Vose'
tp492
a(S'Jonelle'
S'Bentz'
tp493
a(S'Kandis'
S'Baird'
tp494
a(S'Anjanette'
S'Mccutcheon'
tp495
a(S'Arminda'
S'Singley'
tp496
a(S'Kassandra'
S'Coco'
tp497
a(S'Sheryll'
S'Lytch'
tp498
a(S'Star'
S'Crosier'
tp499
a(S'Janene'
S'Broad'
tp500
a(S'Shani'
S'Dunneback'
tp501
a(S'Odessa'
S'Freeburg'
tp502
a(S'Kiera'
S'Axford'
tp503
a(S'Bernadette'
S'Deslauriers'
tp504
a(S'Danuta'
S'Rickett'
tp505
a(S'Jeanmarie'
S'Hersman'
tp506
a(S'Guy'
S'Lepore'
tp507
a(S'Leonel'
S'Banton'
tp508
a(S'Gayla'
S'Vandyne'
tp509
a(S'Valentina'
S'Hofmann'
tp510
a(S'Rhona'
S'Stier'
tp511
a(S'Marla'
S'Sellars'
tp512
a(S'Marisol'
S'Oconnor'
tp513
a(S'Zack'
S'Abdo'
tp514
a(S'Holli'
S'Parrett'
tp515
a(S'Gidget'
S'Estrella'
tp516
a(S'Juliette'
S'Charrier'
tp517
a(S'Lieselotte'
S'Spinner'
tp518
a(S'Kristian'
S'Maheu'
tp519
a(S'Shirly'
S'Judson'
tp520
a(S'Reina'
S'Pelayo'
tp521
a(S'Nadene'
S'Brunette'
tp522
a(S'Tatum'
S'Harpole'
tp523
a(S'Elmo'
S'Ciampa'
tp524
a(S'Raymon'
S'Dombroski'
tp525
a(S'Carmela'
S'Wensel'
tp526
a(S'Tanna'
S'Sayers'
tp527
a(S'Darcel'
S'Camp'
tp528
a(S'Nicol'
S'Hollenbach'
tp529
a(S'Jenni'
S'Stoughton'
tp530
a(S'Janae'
S'Sauve'
tp531
a(S'Curt'
S'Sheldon'
tp532
a(S'Douglass'
S'Horwitz'
tp533
a(S'Samira'
S'Zukowski'
tp534
a(S'Rosio'
S'Gamache'
tp535
a(S'Zola'
S'Schweiger'
tp536
a(S'Lonna'
S'Vaught'
tp537
a(S'Tuyet'
S'Salcedo'
tp538
a(S'Latoria'
S'Qualey'
tp539
a(S'Leora'
S'Moorman'
tp540
a(S'Katherina'
S'Mattera'
tp541
a(S'Elwanda'
S'Emmert'
tp542
a(S'Gretchen'
S'Hinojos'
tp543
a(S'Allie'
S'Tookes'
tp544
a(S'Andy'
S'Lorence'
tp545
a(S'Anna'
S'Mullinix'
tp546
a(S'Shantelle'
S'Abernethy'
tp547
a(S'Stefan'
S'Tulley'
tp548
a(S'Latrice'
S'Dorothy'
tp549
a(S'Mckenzie'
S'Janey'
tp550
a(S'Machelle'
S'Blay'
tp551
a(S'Catrina'
S'Locher'
tp552
a(S'Alyssa'
S'Escarcega'
tp553
a(S'Trudy'
S'Bigler'
tp554
a(S'Eve'
S'Hurston'
tp555
a(S'Harrison'
S'Irizarry'
tp556
a(S'Lorina'
S'Kahre'
tp557
a(S'Donnell'
S'Brice'
tp558
a(S'Cori'
S'Bunger'
tp559
a(S'Linnie'
S'Babst'
tp560
a(S'Janna'
S'Scism'
tp561
a(S'Lashawnda'
S'Vita'
tp562
a(S'Rosanna'
S'Dunagan'
tp563
a(S'Charlena'
S'Hermes'
tp564
a(S'Takako'
S'Harmer'
tp565
a(S'Clelia'
S'Samuel'
tp566
a(S'Beaulah'
S'Heberling'
tp567
a(S'Ellis'
S'Ramsay'
tp568
a(S'Shelly'
S'Axford'
tp569
a(S'Assunta'
S'Stamey'
tp570
a(S'Elfrieda'
S'Dunstan'
tp571
a(S'Arlene'
S'Foutz'
tp572
a(S'Nelida'
S'Gokey'
tp573
a(S'Madelene'
S'Mayse'
tp574
a(S'Tom'
S'Pooley'
tp575
a(S'Tula'
S'Macgregor'
tp576
a(S'Marget'
S'Mcglade'
tp577
a(S'Bobbye'
S'Kinkel'
tp578
a(S'Cinda'
S'Swift'
tp579
a(S'Dulce'
S'Rufus'
tp580
a(S'Lashunda'
S'Case'
tp581
a(S'Georgette'
S'Mccloy'
tp582
a(S'Dianne'
S'Hocker'
tp583
a(S'Monroe'
S'Mejorado'
tp584
a(S'Betty'
S'Alas'
tp585
a(S'Burton'
S'Pergande'
tp586
a(S'Benedict'
S'Facey'
tp587
a(S'Moises'
S'Tesar'
tp588
a(S'Leroy'
S'Wen'
tp589
a(S'Riley'
S'Pattison'
tp590
a(S'Eboni'
S'Chmielewski'
tp591
a(S'Beverly'
S'Snively'
tp592
a(S'Anisha'
S'Wadlow'
tp593
a(S'Cleotilde'
S'Jessen'
tp594
a(S'Jerrell'
S'Hendrick'
tp595
a(S'Russell'
S'Chisolm'
tp596
a(S'Deidre'
S'Mannix'
tp597
a(S'Alvera'
S'Solan'
tp598
a(S'Gwenda'
S'Cortinas'
tp599
a(S'Margherita'
S'Rennie'
tp600
a(S'Felica'
S'Devore'
tp601
a(S'Autumn'
S'Kuether'
tp602
a(S'Rudolf'
S'Twist'
tp603
a(S'Theda'
S'Towers'
tp604
a(S'Forest'
S'Stalls'
tp605
a(S'Teresita'
S'Arguelles'
tp606
a(S'Bertha'
S'Kandoll'
tp607
a(S'Davis'
S'Buckles'
tp608
a(S'Tequila'
S'Doke'
tp609
a(S'Paula'
S'Coty'
tp610
a(S'Santina'
S'Overcash'
tp611
a(S'Taren'
S'Erdmann'
tp612
a(S'Raquel'
S'Betty'
tp613
a(S'Janyce'
S'Harshaw'
tp614
a(S'Vickey'
S'Shofner'
tp615
a(S'Demetra'
S'Kamel'
tp616
a(S'Derrick'
S'Neitzel'
tp617
a(S'Edda'
S'Mccook'
tp618
a(S'Iraida'
S'Corson'
tp619
a(S'Windy'
S'Stermer'
tp620
a(S'Jonnie'
S'Mizrahi'
tp621
a(S'Alpha'
S'Salas'
tp622
a(S'Dione'
S'Hobart'
tp623
a(S'Miguel'
S'Fritsche'
tp624
a(S'Lilliana'
S'Davids'
tp625
a(S'Georgianne'
S'Porath'
tp626
a(S'Ardath'
S'Dipasquale'
tp627
a(S'Rea'
S'Bulloch'
tp628
a(S'Cathrine'
S'Ong'
tp629
a(S'Keira'
S'Burgan'
tp630
a(S'Trinity'
S'Drakeford'
tp631
a(S'Jeneva'
S'Rhine'
tp632
a(S'Amee'
S'Pulaski'
tp633
a(S'Makeda'
S'Feit'
tp634
a(S'Arielle'
S'Suman'
tp635
a(S'Daine'
S'Auer'
tp636
a(S'Wilmer'
S'Eskridge'
tp637
a(S'Ying'
S'Knights'
tp638
a(S'Dimple'
S'Gualtieri'
tp639
a(S'Sherry'
S'Wan'
tp640
a(S'Allie'
S'Hurt'
tp641
a(S'Iola'
S'Glidewell'
tp642
a(S'Isidra'
S'Portera'
tp643
a(S'Anja'
S'Obryan'
tp644
a(S'Charissa'
S'Sample'
tp645
a(S'Charise'
S'Bermudes'
tp646
a(S'Rosalba'
S'Manger'
tp647
a(S'Angel'
S'Isabelle'
tp648
a(S'Valarie'
S'Clutts'
tp649
a(S'Kasandra'
S'Dickison'
tp650
a(S'Leisa'
S'Sechrist'
tp651
a(S'Dario'
S'Calvert'
tp652
a(S'Mariah'
S'Urias'
tp653
a(S'Antonina'
S'Quesinberry'
tp654
a(S'Hilario'
S'Musselwhite'
tp655
a(S'Cheryl'
S'Benham'
tp656
a(S'Brittani'
S'Pelt'
tp657
a(S'Alberto'
S'Laursen'
tp658
a(S'Danyell'
S'Zerbe'
tp659
a(S'Murray'
S'Coston'
tp660
a(S'Laveta'
S'Garrison'
tp661
a(S'Gregorio'
S'Brehm'
tp662
a(S'Tamie'
S'Mccaffrey'
tp663
a(S'Edwardo'
S'Harger'
tp664
a(S'Ernesto'
S'Huling'
tp665
a(S'Kaye'
S'Hubbert'
tp666
a(S'Tawna'
S'Tanguay'
tp667
a(S'Camila'
S'Talley'
tp668
a(S'Beatrice'
S'Batts'
tp669
a(S'Amado'
S'Lathem'
tp670
a(S'Roselle'
S'Poss'
tp671
a(S'Louisa'
S'Deshong'
tp672
a(S'Yasuko'
S'Jarrard'
tp673
a(S'Gino'
S'Camberos'
tp674
a(S'Willian'
S'Rudnicki'
tp675
a(S'Yoshiko'
S'Seawell'
tp676
a(S'Lisha'
S'Sang'
tp677
a(S'Deandra'
S'Raybon'
tp678
a(S'Efrain'
S'Mckeller'
tp679
a(S'Doria'
S'Holifield'
tp680
a(S'Danielle'
S'Reda'
tp681
a(S'Keenan'
S'Edgecomb'
tp682
a(S'Darlene'
S'Cockerham'
tp683
a(S'Leigha'
S'Larry'
tp684
a(S'Luther'
S'Nemec'
tp685
a(S'Fredericka'
S'Bench'
tp686
a(S'Bryce'
S'Strawbridge'
tp687
a(S'Marquerite'
S'States'
tp688
a(S'Rickie'
S'Probert'
tp689
a(S'Maren'
S'Suess'
tp690
a(S'Daina'
S'Mower'
tp691
a(S'Estrella'
S'Mcniel'
tp692
a(S'Zulma'
S'Monson'
tp693
a(S'Manuel'
S'Seymore'
tp694
a(S'Lanita'
S'Shirk'
tp695
a(S'Lon'
S'Cuadra'
tp696
a(S'Joetta'
S'Copes'
tp697
a(S'Criselda'
S'Barra'
tp698
a(S'Laverne'
S'Byam'
tp699
a(S'Stephaine'
S'Pesce'
tp700
a(S'Pinkie'
S'Yokoyama'
tp701
a(S'Erline'
S'Waldroup'
tp702
a(S'Tamisha'
S'Coe'
tp703
a(S'Lyndon'
S'Stringham'
tp704
a(S'Shantae'
S'Hartmann'
tp705
a(S'Celena'
S'Forsman'
tp706
a(S'Lajuana'
S'Raysor'
tp707
a(S'Yadira'
S'Lafleur'
tp708
a(S'Samatha'
S'Hippe'
tp709
a(S'Florene'
S'Straka'
tp710
a(S'Viva'
S'Skalski'
tp711
a(S'Delmer'
S'Auxier'
tp712
a(S'Niesha'
S'Plant'
tp713
a(S'In'
S'Linderman'
tp714
a(S'Denita'
S'Gabriele'
tp715
a(S'Carita'
S'Tylor'
tp716
a(S'Nichole'
S'Swasey'
tp717
a(S'Clarine'
S'Twiford'
tp718
a(S'Nora'
S'Elie'
tp719
a(S'Herschel'
S'Gulick'
tp720
a(S'Coleen'
S'Vanduyne'
tp721
a(S'Aron'
S'Nathanson'
tp722
a(S'Judy'
S'Dement'
tp723
a(S'Guillermo'
S'Belz'
tp724
a(S'Rosie'
S'Gebhard'
tp725
a(S'Lashandra'
S'Billingslea'
tp726
a(S'Lizbeth'
S'Desousa'
tp727
a(S'Chance'
S'Platner'
tp728
a(S'Hiram'
S'Ptacek'
tp729
a(S'Heather'
S'Wilhite'
tp730
a(S'Clare'
S'Cortese'
tp731
a(S'Blythe'
S'Gilpin'
tp732
a(S'Iluminada'
S'Campo'
tp733
a(S'Ryan'
S'Lacomb'
tp734
a(S'Marshall'
S'Neve'
tp735
a(S'Roxie'
S'French'
tp736
a(S'Stefanie'
S'Derosa'
tp737
a(S'Marquetta'
S'Pitts'
tp738
a(S'Debera'
S'Kurtz'
tp739
a(S'Lidia'
S'Shkreli'
tp740
a(S'Ashlyn'
S'Slankard'
tp741
a(S'Jesusa'
S'Dummer'
tp742
a(S'Genie'
S'Ursery'
tp743
a(S'Reanna'
S'Hagans'
tp744
a(S'Misty'
S'Mckennon'
tp745
a(S'Jacque'
S'Godley'
tp746
a(S'Derick'
S'Duet'
tp747
a(S'Harriette'
S'Fitting'
tp748
a(S'Shawnda'
S'Creegan'
tp749
a(S'Racquel'
S'Grimm'
tp750
a(S'Malcom'
S'Grondin'
tp751
a(S'Lazaro'
S'Rames'
tp752
a(S'Mike'
S'Graydon'
tp753
a(S'Edward'
S'Lydon'
tp754
a(S'Mila'
S'Janes'
tp755
a(S'Kendall'
S'Eidem'
tp756
a(S'Caleb'
S'Sunderland'
tp757
a(S'Jocelyn'
S'Dubuc'
tp758
a(S'Chasidy'
S'Prill'
tp759
a(S'Daisy'
S'Pantoja'
tp760
a(S'Adele'
S'Parrett'
tp761
a(S'Arvilla'
S'Borjas'
tp762
a(S'Lura'
S'Lamonica'
tp763
a(S'Raymon'
S'Huse'
tp764
a(S'Angelina'
S'Boylan'
tp765
a(S'Gina'
S'Mateer'
tp766
a(S'Donnette'
S'Pray'
tp767
a(S'Ileen'
S'Ahlers'
tp768
a(S'Kenton'
S'Hecht'
tp769
a(S'Ta'
S'Farlow'
tp770
a(S'Deandre'
S'Felice'
tp771
a(S'Delpha'
S'Loza'
tp772
a(S'Yuko'
S'Stricklin'
tp773
a(S'Elin'
S'Fenske'
tp774
a(S'Cruz'
S'Yip'
tp775
a(S'Marlys'
S'Plaza'
tp776
a(S'Delores'
S'Ventura'
tp777
a(S'Eleni'
S'Robles'
tp778
a(S'Ayesha'
S'Avera'
tp779
a(S'Vanessa'
S'Lahman'
tp780
a(S'Loreen'
S'Rollison'
tp781
a(S'Dahlia'
S'Body'
tp782
a(S'Marcelle'
S'Sharer'
tp783
a(S'Kendrick'
S'Faucher'
tp784
a(S'Jacinto'
S'Lema'
tp785
a(S'Hazel'
S'Tignor'
tp786
a(S'Leigha'
S'Windle'
tp787
a(S'Dessie'
S'Edmund'
tp788
a(S'Randall'
S'Hoyle'
tp789
a(S'Devin'
S'Orris'
tp790
a(S'Epifania'
S'Chenard'
tp791
a(S'Dion'
S'Napier'
tp792
a(S'Alycia'
S'Laino'
tp793
a(S'Franklyn'
S'Gensler'
tp794
a(S'Vi'
S'Fiedler'
tp795
a(S'Tori'
S'Carroll'
tp796
a(S'Romeo'
S'Mingus'
tp797
a(S'Cindi'
S'Dossett'
tp798
a(S'Lenna'
S'Victorino'
tp799
a(S'Lloyd'
S'Greaney'
tp800
a(S'Sun'
S'Lezama'
tp801
a(S'Alvina'
S'Leja'
tp802
a(S'Kathaleen'
S'Schor'
tp803
a.